; Function Attrs: nofree nounwind uwtable
define void @Abc_FrameCheckPoConstTest(ptr noundef readonly captures(none) %0) local_unnamed_addr #14 {
  %2 = getelementptr inbounds nuw i8, ptr %0, i64 48
  %3 = load ptr, ptr %2, align 8, !tbaa !96
  %4 = getelementptr i8, ptr %3, i64 48
  %.val8 = load ptr, ptr %4, align 8, !tbaa !112
  %5 = getelementptr i8, ptr %.val8, i64 4
  %.val.val9 = load i32, ptr %5, align 4, !tbaa !25
  %6 = icmp sgt i32 %.val.val9, 0
  br i1 %6, label %.lr.ph, label %.critedge

.lr.ph:                                           ; preds = %1, %Abc_FrameCheckPoConst.exit
  %indvars.iv = phi i64 [ %indvars.iv.next, %Abc_FrameCheckPoConst.exit ], [ 0, %1 ]
  %.val11 = phi ptr [ %.val, %Abc_FrameCheckPoConst.exit ], [ %.val8, %1 ]
  %7 = phi ptr [ %31, %Abc_FrameCheckPoConst.exit ], [ %3, %1 ]
  %.val14.i = load i32, ptr %7, align 8, !tbaa !119
  %.not = icmp eq i32 %.val14.i, 3
  br i1 %.not, label %8, label %Abc_FrameCheckPoConst.exit

8:                                                ; preds = %.lr.ph
  %9 = getelementptr i8, ptr %.val11, i64 8
  %.val7.val = load ptr, ptr %9, align 8, !tbaa !68
  %10 = getelementptr inbounds nuw ptr, ptr %.val7.val, i64 %indvars.iv
  %11 = load ptr, ptr %10, align 8, !tbaa !69
  %.val16.i = load ptr, ptr %11, align 8, !tbaa !120
  %12 = getelementptr i8, ptr %11, i64 32
  %.val17.i = load ptr, ptr %12, align 8, !tbaa !123
  %13 = getelementptr i8, ptr %.val16.i, i64 32
  %.val16.val.i = load ptr, ptr %13, align 8, !tbaa !124
  %.val17.val.i = load i32, ptr %.val17.i, align 4, !tbaa !113
  %14 = getelementptr i8, ptr %.val16.val.i, i64 8
  %.val16.val.val.i = load ptr, ptr %14, align 8, !tbaa !68
  %15 = sext i32 %.val17.val.i to i64
  %16 = getelementptr inbounds ptr, ptr %.val16.val.val.i, i64 %15
  %17 = load ptr, ptr %16, align 8, !tbaa !69
  %18 = ptrtoint ptr %17 to i64
  %19 = and i64 %18, -2
  %20 = inttoptr i64 %19 to ptr
  %21 = getelementptr inbounds nuw i8, ptr %20, i64 20
  %22 = load i32, ptr %21, align 4
  %23 = and i32 %22, 15
  %.not.i = icmp eq i32 %23, 1
  br i1 %.not.i, label %24, label %Abc_FrameCheckPoConst.exit

24:                                               ; preds = %8
  %25 = getelementptr i8, ptr %11, i64 20
  %.val18.i = load i32, ptr %25, align 4
  %26 = lshr i32 %.val18.i, 10
  %27 = and i32 %26, 1
  %28 = xor i32 %27, 1
  br label %Abc_FrameCheckPoConst.exit

Abc_FrameCheckPoConst.exit:                       ; preds = %.lr.ph, %8, %24
  %.0.i = phi i32 [ %28, %24 ], [ -1, %.lr.ph ], [ -1, %8 ]
  %29 = trunc nuw nsw i64 %indvars.iv to i32
  %30 = tail call i32 (ptr, ...) @printf(ptr noundef nonnull dereferenceable(1) @.str.7, i32 noundef %29, i32 noundef %.0.i)
  %indvars.iv.next = add nuw nsw i64 %indvars.iv, 1
  %31 = load ptr, ptr %2, align 8, !tbaa !96
  %32 = getelementptr i8, ptr %31, i64 48
  %.val = load ptr, ptr %32, align 8, !tbaa !112
  %33 = getelementptr i8, ptr %.val, i64 4
  %.val.val = load i32, ptr %33, align 4, !tbaa !25
  %34 = sext i32 %.val.val to i64
  %35 = icmp slt i64 %indvars.iv.next, %34
  br i1 %35, label %.lr.ph, label %.critedge, !llvm.loop !125

.critedge:                                        ; preds = %Abc_FrameCheckPoConst.exit, %1
  ret void
}